; Function Attrs: mustprogress uwtable
define noundef zeroext i1 @_ZN7rocksdb10LDBCommand8IsKeyHexERKSt3mapINSt7__cxx1112basic_stringIcSt11char_traitsIcESaIcEEES7_St4lessIS7_ESaISt4pairIKS7_S7_EEERKSt6vectorIS7_SaIS7_EE(ptr noundef nonnull readnone align 8 captures(none) dereferenceable(2208) %0, ptr noundef nonnull align 8 dereferenceable(48) %1, ptr noundef nonnull readonly align 8 captures(none) dereferenceable(24) %2) local_unnamed_addr #5 align 2 {
  %4 = load ptr, ptr %2, align 8, !tbaa !34
  %5 = getelementptr inbounds nuw i8, ptr %2, i64 8
  %6 = load ptr, ptr %5, align 8, !tbaa !34
  %7 = tail call ptr @_ZSt9__find_ifIN9__gnu_cxx17__normal_iteratorIPKNSt7__cxx1112basic_stringIcSt11char_traitsIcESaIcEEESt6vectorIS7_SaIS7_EEEENS0_5__ops16_Iter_equals_valIS8_EEET_SH_SH_T0_St26random_access_iterator_tag(ptr %4, ptr %6, ptr nonnull align 8 dereferenceable(32) @_ZN7rocksdb10LDBCommand7ARG_HEXB5cxx11E)
  %8 = load ptr, ptr %5, align 8, !tbaa !34
  %.not = icmp eq ptr %7, %8
  br i1 %.not, label %9, label %17

9:                                                ; preds = %3
  %10 = load ptr, ptr %2, align 8, !tbaa !34
  %11 = tail call ptr @_ZSt9__find_ifIN9__gnu_cxx17__normal_iteratorIPKNSt7__cxx1112basic_stringIcSt11char_traitsIcESaIcEEESt6vectorIS7_SaIS7_EEEENS0_5__ops16_Iter_equals_valIS8_EEET_SH_SH_T0_St26random_access_iterator_tag(ptr %10, ptr %8, ptr nonnull align 8 dereferenceable(32) @_ZN7rocksdb10LDBCommand11ARG_KEY_HEXB5cxx11E)
  %12 = load ptr, ptr %5, align 8, !tbaa !34
  %.not5 = icmp eq ptr %11, %12
  br i1 %.not5, label %13, label %17

13:                                               ; preds = %9
  %14 = tail call noundef zeroext i1 @_ZN7rocksdb10LDBCommand18ParseBooleanOptionERKSt3mapINSt7__cxx1112basic_stringIcSt11char_traitsIcESaIcEEES7_St4lessIS7_ESaISt4pairIKS7_S7_EEERSB_b(ptr nonnull align 8 poison, ptr noundef nonnull align 8 dereferenceable(48) %1, ptr noundef nonnull align 8 dereferenceable(32) @_ZN7rocksdb10LDBCommand7ARG_HEXB5cxx11E, i1 noundef zeroext false)
  br i1 %14, label %17, label %15

15:                                               ; preds = %13
  %16 = tail call noundef zeroext i1 @_ZN7rocksdb10LDBCommand18ParseBooleanOptionERKSt3mapINSt7__cxx1112basic_stringIcSt11char_traitsIcESaIcEEES7_St4lessIS7_ESaISt4pairIKS7_S7_EEERSB_b(ptr nonnull align 8 poison, ptr noundef nonnull align 8 dereferenceable(48) %1, ptr noundef nonnull align 8 dereferenceable(32) @_ZN7rocksdb10LDBCommand11ARG_KEY_HEXB5cxx11E, i1 noundef zeroext false)
  br label %17

17:                                               ; preds = %15, %13, %9, %3
  %18 = phi i1 [ true, %13 ], [ true, %9 ], [ true, %3 ], [ %16, %15 ]
  ret i1 %18
}